target datalayout = "e-m:e-p270:32:32-p271:32:32-p272:64:64-i64:64-i128:128-f80:128-n8:16:32:64-S128"
target triple = "x86_64-pc-linux-gnu"

; Function Attrs: nounwind sspstrong uwtable
define internal i64 @enum_chain(i32 noundef %0, ptr noundef %1, i64 noundef %2) #0 {
  %4 = alloca i32, align 4
  %5 = alloca ptr, align 8
  %6 = alloca i64, align 8
  %7 = alloca i64, align 8
  store i32 %0, ptr %4, align 4, !tbaa !11
  store ptr %1, ptr %5, align 8, !tbaa !13
  store i64 %2, ptr %6, align 8, !tbaa !7
  call void @llvm.lifetime.start.p0(i64 8, ptr %7) #23
  %8 = call i64 @rb_ary_new_from_values(i64 noundef 1, ptr noundef %6)
  store i64 %8, ptr %7, align 8, !tbaa !7
  %9 = load i64, ptr %7, align 8, !tbaa !7
  %10 = load ptr, ptr %5, align 8, !tbaa !13
  %11 = load i32, ptr %4, align 4, !tbaa !11
  %12 = sext i32 %11 to i64
  %13 = call i64 @rb_ary_cat(i64 noundef %9, ptr noundef %10, i64 noundef %12)
  %14 = load i64, ptr %7, align 8, !tbaa !7
  %15 = call i64 @new_enum_chain(i64 noundef %14)
  call void @llvm.lifetime.end.p0(i64 8, ptr %7) #23
  ret i64 %15
}