; Function Attrs: nounwind sspstrong uwtable
define internal i64 @enum_chain(i32 noundef %0, ptr noundef %1, i64 noundef %2) #0 {
  %4 = alloca i64, align 8
  store i64 %2, ptr %4, align 8, !tbaa !7
  %5 = call i64 @rb_ary_new_from_values(i64 noundef 1, ptr noundef nonnull %4) #18
  %6 = sext i32 %0 to i64
  %7 = call i64 @rb_ary_cat(i64 noundef %5, ptr noundef %1, i64 noundef %6) #18
  %8 = call fastcc i64 @new_enum_chain(i64 noundef %5)
  ret i64 %8
}